; Function Attrs: mustprogress uwtable
define void @_ZNK3nix17ExprConcatStrings4showERKNS_11SymbolTableERSo(ptr nocapture noundef nonnull readonly align 8 dereferenceable(24) %0, ptr noundef nonnull align 8 dereferenceable(88) %1, ptr noundef nonnull align 8 dereferenceable(8) %2) unnamed_addr #4 align 2 {
  %4 = tail call noundef nonnull align 8 dereferenceable(8) ptr @_ZStlsISt11char_traitsIcEERSt13basic_ostreamIcT_ES5_PKc(ptr noundef nonnull align 8 dereferenceable(8) %2, ptr noundef nonnull @.str)
  %5 = getelementptr inbounds i8, ptr %0, i64 16
  %6 = load ptr, ptr %5, align 8
  %7 = load ptr, ptr %6, align 8
  %8 = getelementptr inbounds i8, ptr %6, i64 8
  %9 = load ptr, ptr %8, align 8
  %10 = icmp eq ptr %7, %9
  br i1 %10, label %._crit_edge, label %.lr.ph

.lr.ph:                                           ; preds = %3, %14
  %.013 = phi i8 [ %.1, %14 ], [ 1, %3 ]
  %.sroa.09.012 = phi ptr [ %20, %14 ], [ %7, %3 ]
  %11 = and i8 %.013, 1
  %.not = icmp eq i8 %11, 0
  br i1 %.not, label %12, label %14

12:                                               ; preds = %.lr.ph
  %13 = tail call noundef nonnull align 8 dereferenceable(8) ptr @_ZStlsISt11char_traitsIcEERSt13basic_ostreamIcT_ES5_PKc(ptr noundef nonnull align 8 dereferenceable(8) %2, ptr noundef nonnull @.str.38)
  br label %14

14:                                               ; preds = %.lr.ph, %12
  %.1 = phi i8 [ %.013, %12 ], [ 0, %.lr.ph ]
  %15 = getelementptr inbounds i8, ptr %.sroa.09.012, i64 8
  %16 = load ptr, ptr %15, align 8
  %17 = load ptr, ptr %16, align 8
  %18 = getelementptr inbounds i8, ptr %17, i64 16
  %19 = load ptr, ptr %18, align 8
  tail call void %19(ptr noundef nonnull align 8 dereferenceable(8) %16, ptr noundef nonnull align 8 dereferenceable(88) %1, ptr noundef nonnull align 8 dereferenceable(8) %2)
  %20 = getelementptr inbounds i8, ptr %.sroa.09.012, i64 16
  %21 = icmp eq ptr %20, %9
  br i1 %21, label %._crit_edge, label %.lr.ph

._crit_edge:                                      ; preds = %14, %3
  %22 = tail call noundef nonnull align 8 dereferenceable(8) ptr @_ZStlsISt11char_traitsIcEERSt13basic_ostreamIcT_ES5_PKc(ptr noundef nonnull align 8 dereferenceable(8) %2, ptr noundef nonnull @.str.8)
  ret void
}